Certificate:
    Data:
        Version: 3 (0x2)
        Serial Number: 2 (0x2)
    Signature Algorithm: sha256WithRSAEncryption
        Issuer: C=SE, ST=Stockholm, L=Kista, O=KTH, OU=ICT/COS/NSLab, CN=KTH CA/name=EasyRSA/emailAddress=webmaster@ssvl.kth.se
        Validity
            Not Before: Jan 25 19:32:02 2015 GMT
            Not After : Jan 22 19:32:02 2025 GMT
        Subject: C=SE, ST=Stockholm, L=Kista, O=KTH, OU=ICT/COS/NSLab, CN=client/name=EasyRSA/emailAddress=webmaster@ssvl.kth.se
        Subject Public Key Info:
            Public Key Algorithm: rsaEncryption
                Public-Key: (2048 bit)
                Modulus:
                    00:c5:11:d4:d6:3e:34:e3:ff:32:de:97:46:c0:02:
                    e1:5b:f4:37:30:65:e4:42:00:b5:d9:23:cd:6c:b8:
                    23:86:bb:a5:75:02:71:1c:aa:7c:45:c1:16:e5:f3:
                    f1:4f:de:b8:c1:13:87:58:40:10:da:d5:4d:db:34:
                    56:b2:c9:99:05:29:58:45:77:4e:04:eb:31:c1:24:
                    fc:94:6e:87:47:54:76:96:df:ab:1f:e0:54:ff:22:
                    a2:f1:c2:9c:88:ba:b8:6a:2f:2b:86:dd:a7:68:87:
                    96:6a:bb:3d:00:12:9f:62:3a:80:8a:9d:8a:c8:70:
                    0c:3c:07:5b:41:07:a0:b9:33:96:aa:55:51:e9:be:
                    5d:09:ff:bf:15:cb:d5:88:6a:57:47:dc:6c:06:44:
                    20:0c:9b:77:77:b3:4e:91:41:c7:13:b9:d3:28:8a:
                    70:ef:c4:55:5c:8b:32:02:07:8d:3c:30:07:09:49:
                    b4:6b:94:df:af:d3:df:d3:11:48:a2:73:d4:b3:15:
                    8f:07:66:31:42:52:44:bf:e1:f5:5e:d6:5b:04:ba:
                    17:a0:9a:35:7c:6c:00:c9:c5:5c:c3:c0:24:3c:b0:
                    b7:8f:d9:05:b0:a0:8d:ce:c4:d3:1b:a6:d9:2a:dc:
                    65:9f:db:45:0a:8d:a3:01:75:c3:35:17:1d:9f:a9:
                    f2:79
                Exponent: 65537 (0x10001)
        X509v3 extensions:
            X509v3 Basic Constraints: 
                CA:FALSE
            Netscape Comment: 
                Easy-RSA Generated Certificate
            X509v3 Subject Key Identifier: 
                9D:CE:DA:8C:CC:4A:B6:DE:41:24:54:53:5E:C1:38:DA:BD:42:01:04
            X509v3 Authority Key Identifier: 
                keyid:8D:C8:F8:37:5D:53:93:B8:5C:48:9B:9A:F1:14:B0:D9:04:FF:6C:05
                DirName:/C=SE/ST=Stockholm/L=Kista/O=KTH/OU=ICT/COS/NSLab/CN=KTH CA/name=EasyRSA/emailAddress=webmaster@ssvl.kth.se
                serial:FA:38:7F:D5:E9:FC:36:DE

            X509v3 Extended Key Usage: 
                TLS Web Client Authentication
            X509v3 Key Usage: 
                Digital Signature
            X509v3 Subject Alternative Name: 
                DNS:client
    Signature Algorithm: sha256WithRSAEncryption
         3f:39:18:b9:21:a9:d0:8f:92:7f:5b:d5:a7:ac:ce:57:94:a7:
         c8:f9:e8:41:7d:60:71:44:d4:b1:04:b4:13:9c:b8:a6:9b:eb:
         00:bc:f5:72:a9:b9:c9:63:79:9b:82:cf:75:f3:8e:eb:9a:db:
         8c:ec:26:40:d6:eb:06:63:e7:07:84:a8:e3:b1:b0:c8:c8:03:
         43:75:aa:c5:1e:e9:d4:87:30:86:49:1f:18:74:b7:74:72:7f:
         f1:88:db:9f:f3:ec:94:35:b9:c0:4a:c0:22:65:11:9d:a8:be:
         68:dd:ad:f8:58:b7:32:3a:53:6e:42:9f:2d:4b:6e:bf:ae:4f:
         89:e5:a4:e4:e9:0d:38:69:67:6f:d9:db:da:66:9c:47:c5:c1:
         c8:cb:23:20:4e:d3:1e:e8:67:8f:76:48:6a:2e:6a:e3:11:96:
         16:d3:02:4a:9b:d7:d7:6b:a9:a7:ff:5b:f3:4f:5c:5e:b0:5f:
         71:aa:a2:f4:d6:2e:d3:7a:f3:53:f5:f8:fc:d4:29:99:07:f8:
         d2:93:ec:6a:cc:2f:ea:1c:88:4b:ca:dd:cf:de:9f:03:40:82:
         04:72:08:4f:c9:48:dc:49:c3:0b:bf:ef:af:42:05:a6:70:bc:
         b7:69:d7:b2:bd:3a:eb:f2:56:11:07:94:7d:f8:f4:84:10:83:
         11:16:09:07
-----BEGIN CERTIFICATE-----
MIIFKTCCBBGgAwIBAgIBAjANBgkqhkiG9w0BAQsFADCBoDELMAkGA1UEBhMCU0Ux
EjAQBgNVBAgTCVN0b2NraG9sbTEOMAwGA1UEBxMFS2lzdGExDDAKBgNVBAoTA0tU
SDEWMBQGA1UECxMNSUNUL0NPUy9OU0xhYjEPMA0GA1UEAxMGS1RIIENBMRAwDgYD
VQQpEwdFYXN5UlNBMSQwIgYJKoZIhvcNAQkBFhV3ZWJtYXN0ZXJAc3N2bC5rdGgu
c2UwHhcNMTUwMTI1MTkzMjAyWhcNMjUwMTIyMTkzMjAyWjCBoDELMAkGA1UEBhMC
U0UxEjAQBgNVBAgTCVN0b2NraG9sbTEOMAwGA1UEBxMFS2lzdGExDDAKBgNVBAoT
A0tUSDEWMBQGA1UECxMNSUNUL0NPUy9OU0xhYjEPMA0GA1UEAxMGY2xpZW50MRAw
DgYDVQQpEwdFYXN5UlNBMSQwIgYJKoZIhvcNAQkBFhV3ZWJtYXN0ZXJAc3N2bC5r
dGguc2UwggEiMA0GCSqGSIb3DQEBAQUAA4IBDwAwggEKAoIBAQDFEdTWPjTj/zLe
l0bAAuFb9DcwZeRCALXZI81suCOGu6V1AnEcqnxFwRbl8/FP3rjBE4dYQBDa1U3b
NFayyZkFKVhFd04E6zHBJPyUbodHVHaW36sf4FT/IqLxwpyIurhqLyuG3adoh5Zq
uz0AEp9iOoCKnYrIcAw8B1tBB6C5M5aqVVHpvl0J/78Vy9WIaldH3GwGRCAMm3d3
s06RQccTudMoinDvxFVcizICB408MAcJSbRrlN+v09/TEUiic9SzFY8HZjFCUkS/
4fVe1lsEuhegmjV8bADJxVzDwCQ8sLeP2QWwoI3OxNMbptkq3GWf20UKjaMBdcM1
Fx2fqfJ5AgMBAAGjggFqMIIBZjAJBgNVHRMEAjAAMC0GCWCGSAGG+EIBDQQgFh5F
YXN5LVJTQSBHZW5lcmF0ZWQgQ2VydGlmaWNhdGUwHQYDVR0OBBYEFJ3O2ozMSrbe
QSRUU17BONq9QgEEMIHVBgNVHSMEgc0wgcqAFI3I+DddU5O4XEibmvEUsNkE/2wF
oYGmpIGjMIGgMQswCQYDVQQGEwJTRTESMBAGA1UECBMJU3RvY2tob2xtMQ4wDAYD
VQQHEwVLaXN0YTEMMAoGA1UEChMDS1RIMRYwFAYDVQQLEw1JQ1QvQ09TL05TTGFi
MQ8wDQYDVQQDEwZLVEggQ0ExEDAOBgNVBCkTB0Vhc3lSU0ExJDAiBgkqhkiG9w0B
CQEWFXdlYm1hc3RlckBzc3ZsLmt0aC5zZYIJAPo4f9Xp/DbeMBMGA1UdJQQMMAoG
CCsGAQUFBwMCMAsGA1UdDwQEAwIHgDARBgNVHREECjAIggZjbGllbnQwDQYJKoZI
hvcNAQELBQADggEBAD85GLkhqdCPkn9b1aeszleUp8j56EF9YHFE1LEEtBOcuKab
6wC89XKpucljeZuCz3Xzjuua24zsJkDW6wZj5weEqOOxsMjIA0N1qsUe6dSHMIZJ
Hxh0t3Ryf/GI25/z7JQ1ucBKwCJlEZ2ovmjdrfhYtzI6U25Cny1Lbr+uT4nlpOTp
DThpZ2/Z29pmnEfFwcjLIyBO0x7oZ492SGouauMRlhbTAkqb19drqaf/W/NPXF6w
X3GqovTWLtN681P1+PzUKZkH+NKT7GrML+ociEvK3c/enwNAggRyCE/JSNxJwwu/
769CBaZwvLdp17K9OuvyVhEHlH349IQQgxEWCQc=
-----END CERTIFICATE-----
